target datalayout = "e-m:e-p270:32:32-p271:32:32-p272:64:64-i64:64-i128:128-f80:128-n8:16:32:64-S128"
target triple = "x86_64-pc-linux-gnu"

%"class.pbrt::SampledSpectrum" = type { %"class.pstd::array" }
%"class.pstd::array" = type { [4 x float] }

; Function Attrs: mustprogress nounwind uwtable
define linkonce_odr dso_local noundef nonnull align 4 dereferenceable(4) ptr @_ZN4pstd5arrayIfLi4EEixEm(ptr noundef nonnull align 4 dereferenceable(16) %0, i64 noundef %1) #6 comdat align 2 {
  %3 = alloca ptr, align 8
  %4 = alloca i64, align 8
  store ptr %0, ptr %3, align 8, !tbaa !182
  store i64 %1, ptr %4, align 8, !tbaa !77
  %5 = load ptr, ptr %3, align 8
  %6 = getelementptr inbounds nuw %"class.pstd::array", ptr %5, i32 0, i32 0
  %7 = load i64, ptr %4, align 8, !tbaa !77
  %8 = getelementptr inbounds nuw [4 x float], ptr %6, i64 0, i64 %7
  ret ptr %8
}

; Function Attrs: inlinehint mustprogress nounwind uwtable
define linkonce_odr dso_local noundef float @_ZN4pbrt3PowILi0EEEff(float noundef %0) #5 comdat {
  %2 = alloca float, align 4
  store float %0, ptr %2, align 4, !tbaa !9
  ret float 1.000000e+00
}

; Function Attrs: inlinehint mustprogress nounwind uwtable
define linkonce_odr dso_local noundef float @_ZN4pbrt3PowILi2EEEff(float noundef %0) #5 comdat {
  %2 = alloca float, align 4
  %3 = alloca float, align 4
  store float %0, ptr %2, align 4, !tbaa !9
  call void @llvm.lifetime.start.p0(i64 4, ptr %3) #12
  %4 = load float, ptr %2, align 4, !tbaa !9
  %5 = call noundef float @_ZN4pbrt3PowILi1EEEff(float noundef %4)
  store float %5, ptr %3, align 4, !tbaa !9
  %6 = load float, ptr %3, align 4, !tbaa !9
  %7 = load float, ptr %3, align 4, !tbaa !9
  %8 = fmul float %6, %7
  %9 = load float, ptr %2, align 4, !tbaa !9
  %10 = call noundef float @_ZN4pbrt3PowILi0EEEff(float noundef %9)
  %11 = fmul float %8, %10
  call void @llvm.lifetime.end.p0(i64 4, ptr %3) #12
  ret float %11
}

; Function Attrs: inlinehint mustprogress nounwind uwtable
define linkonce_odr dso_local noundef float @_ZN4pbrt3PowILi1EEEff(float noundef %0) #5 comdat {
  %2 = alloca float, align 4
  store float %0, ptr %2, align 4, !tbaa !9
  %3 = load float, ptr %2, align 4, !tbaa !9
  ret float %3
}

; Function Attrs: mustprogress nounwind uwtable
define linkonce_odr dso_local noundef nonnull align 4 dereferenceable(4) ptr @_ZNK4pstd5arrayIfLi4EEixEm(ptr noundef nonnull align 4 dereferenceable(16) %0, i64 noundef %1) #6 comdat align 2 {
  %3 = alloca ptr, align 8
  %4 = alloca i64, align 8
  store ptr %0, ptr %3, align 8, !tbaa !182
  store i64 %1, ptr %4, align 8, !tbaa !77
  %5 = load ptr, ptr %3, align 8
  %6 = getelementptr inbounds nuw %"class.pstd::array", ptr %5, i32 0, i32 0
  %7 = load i64, ptr %4, align 8, !tbaa !77
  %8 = getelementptr inbounds nuw [4 x float], ptr %6, i64 0, i64 %7
  ret ptr %8
}

; Function Attrs: mustprogress nounwind uwtable
define linkonce_odr dso_local void @_ZN4pstd5arrayIfLi4EEC2Ev(ptr noundef nonnull align 4 dereferenceable(16) %0) unnamed_addr #6 comdat align 2 {
  %2 = alloca ptr, align 8
  store ptr %0, ptr %2, align 8, !tbaa !182
  %3 = load ptr, ptr %2, align 8
  %4 = getelementptr inbounds nuw %"class.pstd::array", ptr %3, i32 0, i32 0
  %5 = getelementptr inbounds float, ptr %4, i64 4
  br label %6

6:                                                ; preds = %6, %1
  %7 = phi ptr [ %4, %1 ], [ %8, %6 ]
  store float 0.000000e+00, ptr %7, align 4, !tbaa !9
  %8 = getelementptr inbounds float, ptr %7, i64 1
  %9 = icmp eq ptr %8, %5
  br i1 %9, label %10, label %6

10:                                               ; preds = %6
  ret void
}

; Function Attrs: mustprogress uwtable
define linkonce_odr dso_local noundef nonnull align 4 dereferenceable(4) ptr @_ZN4pbrt15SampledSpectrumixEi(ptr noundef nonnull align 4 dereferenceable(16) %0, i32 noundef %1) #1 comdat align 2 {
  %3 = alloca ptr, align 8
  %4 = alloca i32, align 4
  store ptr %0, ptr %3, align 8, !tbaa !15
  store i32 %1, ptr %4, align 4, !tbaa !17
  %5 = load ptr, ptr %3, align 8
  br label %6

6:                                                ; preds = %2
  br label %7

7:                                                ; preds = %6
  %8 = getelementptr inbounds nuw %"class.pbrt::SampledSpectrum", ptr %5, i32 0, i32 0
  %9 = load i32, ptr %4, align 4, !tbaa !17
  %10 = sext i32 %9 to i64
  %11 = call noundef nonnull align 4 dereferenceable(4) ptr @_ZN4pstd5arrayIfLi4EEixEm(ptr noundef nonnull align 4 dereferenceable(16) %8, i64 noundef %10)
  ret ptr %11
}

; Function Attrs: inlinehint mustprogress nounwind uwtable
define linkonce_odr dso_local noundef float @_ZN4pbrt3PowILi5EEEff(float noundef %0) #5 comdat {
  %2 = alloca float, align 4
  %3 = alloca float, align 4
  store float %0, ptr %2, align 4, !tbaa !9
  call void @llvm.lifetime.start.p0(i64 4, ptr %3) #12
  %4 = load float, ptr %2, align 4, !tbaa !9
  %5 = call noundef float @_ZN4pbrt3PowILi2EEEff(float noundef %4)
  store float %5, ptr %3, align 4, !tbaa !9
  %6 = load float, ptr %3, align 4, !tbaa !9
  %7 = load float, ptr %3, align 4, !tbaa !9
  %8 = fmul float %6, %7
  %9 = load float, ptr %2, align 4, !tbaa !9
  %10 = call noundef float @_ZN4pbrt3PowILi1EEEff(float noundef %9)
  %11 = fmul float %8, %10
  call void @llvm.lifetime.end.p0(i64 4, ptr %3) #12
  ret float %11
}

; Function Attrs: inlinehint mustprogress uwtable
define linkonce_odr dso_local noundef float @_ZN4pbrt3PowILi4EEEff(float noundef %0) #7 comdat {
  %2 = alloca float, align 4
  %3 = alloca float, align 4
  store float %0, ptr %2, align 4, !tbaa !9
  call void @llvm.lifetime.start.p0(i64 4, ptr %3) #12
  %4 = load float, ptr %2, align 4, !tbaa !9
  %5 = call noundef float @_ZN4pbrt3PowILi2EEEff(float noundef %4)
  store float %5, ptr %3, align 4, !tbaa !9
  %6 = load float, ptr %3, align 4, !tbaa !9
  %7 = load float, ptr %3, align 4, !tbaa !9
  %8 = fmul float %6, %7
  %9 = load float, ptr %2, align 4, !tbaa !9
  %10 = call noundef float @_ZN4pbrt3PowILi0EEEff(float noundef %9)
  %11 = fmul float %8, %10
  call void @llvm.lifetime.end.p0(i64 4, ptr %3) #12
  ret float %11
}

; Function Attrs: inlinehint mustprogress nounwind uwtable
define linkonce_odr dso_local noundef float @_ZN4pbrt3PowILi3EEEff(float noundef %0) #5 comdat {
  %2 = alloca float, align 4
  %3 = alloca float, align 4
  store float %0, ptr %2, align 4, !tbaa !9
  call void @llvm.lifetime.start.p0(i64 4, ptr %3) #12
  %4 = load float, ptr %2, align 4, !tbaa !9
  %5 = call noundef float @_ZN4pbrt3PowILi1EEEff(float noundef %4)
  store float %5, ptr %3, align 4, !tbaa !9
  %6 = load float, ptr %3, align 4, !tbaa !9
  %7 = load float, ptr %3, align 4, !tbaa !9
  %8 = fmul float %6, %7
  %9 = load float, ptr %2, align 4, !tbaa !9
  %10 = call noundef float @_ZN4pbrt3PowILi1EEEff(float noundef %9)
  %11 = fmul float %8, %10
  call void @llvm.lifetime.end.p0(i64 4, ptr %3) #12
  ret float %11
}

; Function Attrs: inlinehint mustprogress nounwind uwtable
define linkonce_odr dso_local noundef float @_ZN4pbrt3SqrIfEET_S1_(float noundef %0) #5 comdat {
  %2 = alloca float, align 4
  store float %0, ptr %2, align 4, !tbaa !9
  %3 = load float, ptr %2, align 4, !tbaa !9
  %4 = load float, ptr %2, align 4, !tbaa !9
  %5 = fmul float %3, %4
  ret float %5
}

; Function Attrs: inlinehint mustprogress nounwind uwtable
define linkonce_odr dso_local noundef float @_ZSt3logf(float noundef %0) #5 comdat {
  %2 = alloca float, align 4
  store float %0, ptr %2, align 4, !tbaa !9
  %3 = load float, ptr %2, align 4, !tbaa !9
  %4 = call float @logf(float noundef %3) #12, !tbaa !17
  ret float %4
}

; Function Attrs: mustprogress nounwind uwtable
define linkonce_odr dso_local noundef float @_ZNK4pbrt15SampledSpectrumixEi(ptr noundef nonnull align 4 dereferenceable(16) %0, i32 noundef %1) #6 comdat align 2 {
  %3 = alloca ptr, align 8
  %4 = alloca i32, align 4
  store ptr %0, ptr %3, align 8, !tbaa !15
  store i32 %1, ptr %4, align 4, !tbaa !17
  %5 = load ptr, ptr %3, align 8
  br label %6

6:                                                ; preds = %2
  br label %7

7:                                                ; preds = %6
  %8 = getelementptr inbounds nuw %"class.pbrt::SampledSpectrum", ptr %5, i32 0, i32 0
  %9 = load i32, ptr %4, align 4, !tbaa !17
  %10 = sext i32 %9 to i64
  %11 = call noundef nonnull align 4 dereferenceable(4) ptr @_ZNK4pstd5arrayIfLi4EEixEm(ptr noundef nonnull align 4 dereferenceable(16) %8, i64 noundef %10)
  %12 = load float, ptr %11, align 4, !tbaa !9
  ret float %12
}

; Function Attrs: mustprogress nounwind uwtable
define linkonce_odr dso_local void @_ZN4pbrt15SampledSpectrumC2Ev(ptr noundef nonnull align 4 dereferenceable(16) %0) unnamed_addr #6 comdat align 2 {
  %2 = alloca ptr, align 8
  store ptr %0, ptr %2, align 8, !tbaa !15
  %3 = load ptr, ptr %2, align 8
  %4 = getelementptr inbounds nuw %"class.pbrt::SampledSpectrum", ptr %3, i32 0, i32 0
  call void @_ZN4pstd5arrayIfLi4EEC2Ev(ptr noundef nonnull align 4 dereferenceable(16) %4) #12
  ret void
}

; Function Attrs: mustprogress uwtable
define dso_local { <2 x float>, <2 x float> } @_ZN4pbrt8HairBxDF21SigmaAFromReflectanceERKNS_15SampledSpectrumEfRKNS_18SampledWavelengthsE(ptr noundef nonnull align 4 dereferenceable(16) %0, float noundef %1, ptr noundef nonnull align 4 dereferenceable(32) %2) #1 align 2 {
  %4 = alloca %"class.pbrt::SampledSpectrum", align 4
  %5 = alloca ptr, align 8
  %6 = alloca float, align 4
  %7 = alloca ptr, align 8
  %8 = alloca i32, align 4
  store ptr %0, ptr %5, align 8, !tbaa !15
  store float %1, ptr %6, align 4, !tbaa !9
  store ptr %2, ptr %7, align 8, !tbaa !200
  call void @_ZN4pbrt15SampledSpectrumC2Ev(ptr noundef nonnull align 4 dereferenceable(16) %4) #12
  call void @llvm.lifetime.start.p0(i64 4, ptr %8) #12
  store i32 0, ptr %8, align 4, !tbaa !17
  br label %9

9:                                                ; preds = %41, %3
  %10 = load i32, ptr %8, align 4, !tbaa !17
  %11 = icmp slt i32 %10, 4
  br i1 %11, label %13, label %12

12:                                               ; preds = %9
  call void @llvm.lifetime.end.p0(i64 4, ptr %8) #12
  br label %44

13:                                               ; preds = %9
  %14 = load ptr, ptr %5, align 8, !tbaa !15
  %15 = load i32, ptr %8, align 4, !tbaa !17
  %16 = call noundef float @_ZNK4pbrt15SampledSpectrumixEi(ptr noundef nonnull align 4 dereferenceable(16) %14, i32 noundef %15)
  %17 = call noundef float @_ZSt3logf(float noundef %16)
  %18 = load float, ptr %6, align 4, !tbaa !9
  %19 = fmul float 0x3FCB851EC0000000, %18
  %20 = fsub float 0x4017E04180000000, %19
  %21 = load float, ptr %6, align 4, !tbaa !9
  %22 = call noundef float @_ZN4pbrt3SqrIfEET_S1_(float noundef %21)
  %23 = fmul float 0x4004418940000000, %22
  %24 = fadd float %20, %23
  %25 = load float, ptr %6, align 4, !tbaa !9
  %26 = call noundef float @_ZN4pbrt3PowILi3EEEff(float noundef %25)
  %27 = fmul float 0x402575C280000000, %26
  %28 = fsub float %24, %27
  %29 = load float, ptr %6, align 4, !tbaa !9
  %30 = call noundef float @_ZN4pbrt3PowILi4EEEff(float noundef %29)
  %31 = fmul float 0x40164BC6A0000000, %30
  %32 = fadd float %28, %31
  %33 = load float, ptr %6, align 4, !tbaa !9
  %34 = call noundef float @_ZN4pbrt3PowILi5EEEff(float noundef %33)
  %35 = fmul float 0x3FCF5C2900000000, %34
  %36 = fadd float %32, %35
  %37 = fdiv float %17, %36
  %38 = call noundef float @_ZN4pbrt3SqrIfEET_S1_(float noundef %37)
  %39 = load i32, ptr %8, align 4, !tbaa !17
  %40 = call noundef nonnull align 4 dereferenceable(4) ptr @_ZN4pbrt15SampledSpectrumixEi(ptr noundef nonnull align 4 dereferenceable(16) %4, i32 noundef %39)
  store float %38, ptr %40, align 4, !tbaa !9
  br label %41

41:                                               ; preds = %13
  %42 = load i32, ptr %8, align 4, !tbaa !17
  %43 = add nsw i32 %42, 1
  store i32 %43, ptr %8, align 4, !tbaa !17
  br label %9, !llvm.loop !202

44:                                               ; preds = %12
  %45 = getelementptr inbounds nuw %"class.pbrt::SampledSpectrum", ptr %4, i32 0, i32 0
  %46 = getelementptr inbounds nuw %"class.pstd::array", ptr %45, i32 0, i32 0
  %47 = load { <2 x float>, <2 x float> }, ptr %46, align 4
  ret { <2 x float>, <2 x float> } %47
}