; Function Attrs: mustprogress nofree nounwind memory(write, argmem: readwrite) uwtable
define dso_local { <2 x float>, <2 x float> } @_ZN4pbrt8HairBxDF21SigmaAFromReflectanceERKNS_15SampledSpectrumEfRKNS_18SampledWavelengthsE(ptr noundef nonnull readonly align 4 captures(none) dereferenceable(16) %0, float noundef %1, ptr noundef nonnull readnone align 4 captures(none) dereferenceable(32) %2) local_unnamed_addr #12 align 2 {
  %4 = alloca %"class.pbrt::SampledSpectrum", align 8
  call void @llvm.memset.p0.i64(ptr noundef nonnull align 8 dereferenceable(16) %4, i8 0, i64 16, i1 false), !tbaa !4
  %5 = fmul float %1, 0x3FCB851EC0000000
  %6 = fsub float 0x4017E04180000000, %5
  %7 = fmul float %1, %1
  %8 = fmul float %7, 0x4004418940000000
  %9 = fadd float %6, %8
  %10 = fmul float %1, %7
  %11 = fmul float %10, 0x402575C280000000
  %12 = fsub float %9, %11
  %13 = fmul float %7, %7
  %14 = fmul float %13, 0x40164BC6A0000000
  %15 = fadd float %14, %12
  %16 = fmul float %1, %13
  %17 = fmul float %16, 0x3FCF5C2900000000
  %18 = fadd float %17, %15
  br label %20

19:                                               ; preds = %20
  %.fca.0.load = load <2 x float>, ptr %4, align 8
  %.fca.0.insert = insertvalue { <2 x float>, <2 x float> } poison, <2 x float> %.fca.0.load, 0
  %.fca.1.gep = getelementptr inbounds nuw i8, ptr %4, i64 8
  %.fca.1.load = load <2 x float>, ptr %.fca.1.gep, align 8
  %.fca.1.insert = insertvalue { <2 x float>, <2 x float> } %.fca.0.insert, <2 x float> %.fca.1.load, 1
  ret { <2 x float>, <2 x float> } %.fca.1.insert

20:                                               ; preds = %3, %20
  %indvars.iv = phi i64 [ 0, %3 ], [ %indvars.iv.next, %20 ]
  %21 = getelementptr inbounds nuw [4 x float], ptr %0, i64 0, i64 %indvars.iv
  %22 = load float, ptr %21, align 4, !tbaa !4
  %23 = tail call noundef float @logf(float noundef %22) #31, !tbaa !67
  %24 = fdiv float %23, %18
  %25 = fmul float %24, %24
  %26 = getelementptr inbounds nuw [4 x float], ptr %4, i64 0, i64 %indvars.iv
  store float %25, ptr %26, align 4, !tbaa !4
  %indvars.iv.next = add nuw nsw i64 %indvars.iv, 1
  %exitcond.not = icmp eq i64 %indvars.iv.next, 4
  br i1 %exitcond.not, label %19, label %20, !llvm.loop !183
}